target datalayout = "e-m:e-p270:32:32-p271:32:32-p272:64:64-i64:64-i128:128-f80:128-n8:16:32:64-S128"
target triple = "x86_64-pc-linux-gnu"

%struct.stat = type { i64, i64, i64, i32, i32, i32, i32, i64, i64, i64, i64, %struct.timespec, %struct.timespec, %struct.timespec, [3 x i64] }
%struct.timespec = type { i64, i64 }

@.str.209 = private unnamed_addr constant [32 x i8] c"failed to create directory '%s'\00", align 1
@.str.210 = private unnamed_addr constant [20 x i8] c"failed to stat '%s'\00", align 1
@.str.211 = private unnamed_addr constant [33 x i8] c"%s exists and is not a directory\00", align 1

; Function Attrs: nounwind uwtable
define internal void @mkdir_if_missing(ptr noundef %0, i32 noundef %1) #0 {
  %3 = alloca ptr, align 8
  %4 = alloca i32, align 4
  %5 = alloca %struct.stat, align 8
  %6 = alloca i32, align 4
  store ptr %0, ptr %3, align 8, !tbaa !11
  store i32 %1, ptr %4, align 4, !tbaa !4
  call void @llvm.lifetime.start.p0(i64 144, ptr %5) #13
  %7 = load ptr, ptr %3, align 8, !tbaa !11
  %8 = load i32, ptr %4, align 4, !tbaa !4
  %9 = call i32 @mkdir(ptr noundef %7, i32 noundef %8) #13
  %10 = icmp ne i32 %9, 0
  br i1 %10, label %12, label %11

11:                                               ; preds = %2
  store i32 1, ptr %6, align 4
  br label %37

12:                                               ; preds = %2
  %13 = call ptr @__errno_location() #16
  %14 = load i32, ptr %13, align 4, !tbaa !4
  %15 = icmp ne i32 %14, 17
  br i1 %15, label %16, label %19

16:                                               ; preds = %12
  %17 = call ptr @_(ptr noundef @.str.209)
  %18 = load ptr, ptr %3, align 8, !tbaa !11
  call void (ptr, ...) @die_errno(ptr noundef %17, ptr noundef %18) #14
  unreachable

19:                                               ; preds = %12
  %20 = load ptr, ptr %3, align 8, !tbaa !11
  %21 = call i32 @stat64(ptr noundef %20, ptr noundef %5) #13
  %22 = icmp ne i32 %21, 0
  br i1 %22, label %23, label %26

23:                                               ; preds = %19
  %24 = call ptr @_(ptr noundef @.str.210)
  %25 = load ptr, ptr %3, align 8, !tbaa !11
  call void (ptr, ...) @die_errno(ptr noundef %24, ptr noundef %25) #14
  unreachable

26:                                               ; preds = %19
  %27 = getelementptr inbounds nuw %struct.stat, ptr %5, i32 0, i32 3
  %28 = load i32, ptr %27, align 8, !tbaa !150
  %29 = and i32 %28, 61440
  %30 = icmp eq i32 %29, 16384
  br i1 %30, label %34, label %31

31:                                               ; preds = %26
  %32 = call ptr @_(ptr noundef @.str.211)
  %33 = load ptr, ptr %3, align 8, !tbaa !11
  call void (ptr, ...) @die(ptr noundef %32, ptr noundef %33) #14
  unreachable

34:                                               ; preds = %26
  br label %35

35:                                               ; preds = %34
  br label %36

36:                                               ; preds = %35
  store i32 0, ptr %6, align 4
  br label %37

37:                                               ; preds = %36, %11
  call void @llvm.lifetime.end.p0(i64 144, ptr %5) #13
  %38 = load i32, ptr %6, align 4
  switch i32 %38, label %40 [
    i32 0, label %39
    i32 1, label %39
  ]

39:                                               ; preds = %37, %37
  ret void

40:                                               ; preds = %37
  unreachable
}