; Function Attrs: nounwind uwtable
define internal fastcc void @mkdir_if_missing(ptr noundef %0) unnamed_addr #0 {
  %2 = alloca %struct.stat, align 8
  call void @llvm.lifetime.start.p0(i64 144, ptr nonnull %2) #20
  %3 = tail call i32 @mkdir(ptr noundef %0, i32 noundef 511) #20
  %.not = icmp eq i32 %3, 0
  br i1 %.not, label %20, label %4

4:                                                ; preds = %1
  %5 = tail call ptr @__errno_location() #24
  %6 = load i32, ptr %5, align 4, !tbaa !4
  %.not5 = icmp eq i32 %6, 17
  br i1 %.not5, label %9, label %7

7:                                                ; preds = %4
  %8 = tail call fastcc ptr @_(ptr noundef nonnull @.str.209)
  tail call void (ptr, ...) @die_errno(ptr noundef %8, ptr noundef %0) #21
  unreachable

9:                                                ; preds = %4
  %10 = call i32 @stat64(ptr noundef %0, ptr noundef nonnull %2) #20
  %.not6 = icmp eq i32 %10, 0
  br i1 %.not6, label %13, label %11

11:                                               ; preds = %9
  %12 = tail call fastcc ptr @_(ptr noundef nonnull @.str.210)
  tail call void (ptr, ...) @die_errno(ptr noundef %12, ptr noundef %0) #21
  unreachable

13:                                               ; preds = %9
  %14 = getelementptr inbounds nuw i8, ptr %2, i64 24
  %15 = load i32, ptr %14, align 8, !tbaa !84
  %16 = and i32 %15, 61440
  %17 = icmp eq i32 %16, 16384
  br i1 %17, label %20, label %18

18:                                               ; preds = %13
  %19 = tail call fastcc ptr @_(ptr noundef nonnull @.str.211)
  tail call void (ptr, ...) @die(ptr noundef %19, ptr noundef %0) #21
  unreachable

20:                                               ; preds = %13, %1
  call void @llvm.lifetime.end.p0(i64 144, ptr nonnull %2) #20
  ret void
}